(dp0
S'cookies'
p1
(dp2
sS'version'
p3
S'1.3.5'
p4
sS'storage'
p5
(dp6
S'userName'
p7
V@e25f54c9917e7aaf5bbfbcb728154b19
p8
sS'lastInputUserName'
p9
NsS'memberList'
p10
ccopy_reg
_reconstructor
p11
(citchat.storage.templates
ContactList
p12
c__builtin__
list
p13
(lp14
tp15
Rp16
I1
bsS'chatroomList'
p17
g11
(g12
g13
(lp18
tp19
Rp20
I1
bsS'nickName'
p21
V\u5b9d\u57ce
p22
sS'mpList'
p23
g11
(g12
g13
(lp24
tp25
Rp26
I1
bssS'loginInfo'
p27
(dp28
S'SyncKey'
p29
(dp30
VCount
p31
I9
sVList
p32
(lp33
(dp34
VVal
p35
I660463848
sVKey
p36
I1
sa(dp37
VVal
p38
I660464566
sVKey
p39
I2
sa(dp40
VVal
p41
I660464425
sVKey
p42
I3
sa(dp43
VVal
p44
I660463127
sVKey
p45
I11
sa(dp46
VVal
p47
I660360014
sVKey
p48
I13
sa(dp49
VVal
p50
I1494666642
sVKey
p51
I201
sa(dp52
VVal
p53
I1494665466
sVKey
p54
I1000
sa(dp55
VVal
p56
I1494648031
sVKey
p57
I1001
sa(dp58
VVal
p59
I1494344568
sVKey
p60
I1004
sassS'syncUrl'
p61
S'https://webpush.wx2.qq.com/cgi-bin/mmwebwx-bin'
p62
sS'skey'
p63
V@crypt_2609fb79_d95185eafc7b8617ff3e903bf868789d
p64
sS'wxuin'
p65
V1839846260
p66
sS'synckey'
p67
S'1_660463848|2_660464566|3_660464425|11_660463127|13_660360014|201_1494666642|1000_1494665466|1001_1494648031|1004_1494344568'
p68
sS'url'
p69
Vhttps://wx2.qq.com/cgi-bin/mmwebwx-bin
p70
sS'pass_ticket'
p71
V8W31%2FEHWFje%2BW%2Bh6HQF4DHkdnD3N7cP2in%2FQaJ6nlo9%2FDNlMECxNl7pMtnseRSf%2B
p72
sS'deviceid'
p73
S'e332556161915066'
p74
sS'wxsid'
p75
V6iHJoxEsFCVNhm6b
p76
sS'InviteStartCount'
p77
I40
sS'fileUrl'
p78
S'https://file.wx2.qq.com/cgi-bin/mmwebwx-bin'
p79
sS'BaseRequest'
p80
(dp81
S'Sid'
p82
g76
sS'Skey'
p83
g64
sS'DeviceID'
p84
g72
sS'Uin'
p85
g66
ssS'User'
p86
g11
(citchat.storage.templates
User
p87
c__builtin__
dict
p88
(dp89
S'UserName'
p90
g8
sS'City'
p91
S''
p92
sS'DisplayName'
p93
g92
sS'UniFriend'
p94
I0
sS'MemberList'
p95
g11
(g12
g13
(lp96
tp97
Rp98
I1
bsS'PYQuanPin'
p99
V
p100
sS'RemarkPYInitial'
p101
g100
sS'Sex'
p102
I1
sS'AppAccountFlag'
p103
I0
sS'VerifyFlag'
p104
I0
sS'Province'
p105
g92
sS'KeyWord'
p106
g92
sS'RemarkName'
p107
g100
sS'PYInitial'
p108
g100
sS'ChatRoomId'
p109
I0
sS'HideInputBarFlag'
p110
I0
sVHeadImgFlag
p111
I1
sS'EncryChatRoomId'
p112
g92
sS'AttrStatus'
p113
I0
sVWebWxPluginSwitch
p114
I0
sS'SnsFlag'
p115
I17
sS'MemberCount'
p116
I0
sS'OwnerUin'
p117
I0
sS'Alias'
p118
g92
sS'Signature'
p119
V\u5fc3\u60c5\u590d\u6742
p120
sS'ContactFlag'
p121
I0
sS'NickName'
p122
g22
sS'RemarkPYQuanPin'
p123
g100
sS'HeadImgUrl'
p124
V/cgi-bin/mmwebwx-bin/webwxgeticon?seq=1021617116&username=@e25f54c9917e7aaf5bbfbcb728154b19&skey=@crypt_2609fb79_d95185eafc7b8617ff3e903bf868789d
p125
sg85
I1839846260
sS'StarFriend'
p126
I0
sS'Statues'
p127
I0
stp128
Rp129
I1
bss.